(lp0
(lp1
S'/home/kiran/Documents/Facerec/databases/trained/ORL'
p2
aS'PCA'
p3
aa(lp4
S'/home/kiran/Documents/Facerec/databases/trained/YALE RESIZED DATASET'
p5
ag3
aa(lp6
S'/home/kiran/Documents/Facerec/databases/trained/caltech_small_version'
p7
aS'PCA'
p8
aa(lp9
S'/home/kiran/Documents/Facerec/databases/trained/umist'
p10
aS'PCA'
p11
aa.