(lp0
(lp1
S'/home/kiran/Documents/Facerec/databases/trained/ORL'
p2
aS'PCA'
p3
aa(lp4
S'/home/kiran/Documents/Facerec/databases/trained/yalefaces gif'
p5
ag3
aa(lp6
S'/home/kiran/Documents/Facerec/databases/trained/YALE RESIZED DATASET'
p7
aS'PCA'
p8
aa.