(lp0
S'/home/kiran/Documents/Facerec/databases/trained/ORL'
p1
aS'/home/kiran/Documents/Facerec/databases/trained/yalefaces gif'
p2
aS'/home/kiran/Documents/Facerec/databases/trained/YALE RESIZED DATASET'
p3
a.