(lp0
S'/home/kiran/Documents/Facerec/databases/trained/ORL'
p1
aS'/home/kiran/Documents/Facerec/databases/trained/yalefaces gif'
p2
aS'/home/kiran/Documents/Facerec/databases/trained/Caltech'
p3
aS'/home/kiran/Documents/Facerec/databases/trained/caltech_downloaded'
p4
aS'/home/kiran/Documents/Facerec/databases/trained/caltech_small_version'
p5
aS'/home/kiran/Documents/Facerec/databases/trained/cropped_faces ( Georgia Tech Database )'
p6
aS'/home/kiran/Documents/Facerec/databases/trained/dbase (downloaded)'
p7
aS'/home/kiran/Documents/Facerec/databases/trained/gt_db ( Georgia Tech Database )'
p8
aS'/home/kiran/Documents/Facerec/databases/trained/males'
p9
aS'/home/kiran/Documents/Facerec/databases/trained/umist'
p10
a.