(lp0
S'/home/kiran/Documents/Facerec/databases/trained/ORL'
p1
aS'/home/kiran/Documents/Facerec/databases/trained/YALE RESIZED DATASET'
p2
aS'/home/kiran/Documents/Facerec/databases/trained/caltech_small_version'
p3
aS'/home/kiran/Documents/Facerec/databases/trained/umist'
p4
a.