(lp0
(lp1
S'/home/kiran/Documents/Facerec/databases/trained/ORL'
p2
aS'HBSL2'
p3
aa(lp4
S'/home/kiran/Documents/Facerec/databases/trained/umist'
p5
aS'PCA'
p6
aa(lp7
S'/home/kiran/Documents/Facerec/databases/trained/yale.faces.gif'
p8
aS'HBSL1'
p9
aa.